target datalayout = "e-m:e-p270:32:32-p271:32:32-p272:64:64-i64:64-i128:128-f80:128-n8:16:32:64-S128"
target triple = "x86_64-pc-linux-gnu"

%struct.eio_obj = type { i32, ptr, ptr, i8 }
%struct.task_write_info = type { i32, ptr, ptr, ptr, i32 }

@.str.67 = private unnamed_addr constant [22 x i8] c"Called _task_writable\00", align 1
@.str.68 = private unnamed_addr constant [18 x i8] c"  false, fd == -1\00", align 1
@.str.69 = private unnamed_addr constant [24 x i8] c"  true, list_count = %d\00", align 1
@.str.70 = private unnamed_addr constant [26 x i8] c"  false (list_count = %d)\00", align 1

; Function Attrs: nounwind uwtable
define internal zeroext i1 @_task_writable(ptr noundef %0) #0 {
  %2 = alloca i1, align 1
  %3 = alloca ptr, align 8
  %4 = alloca ptr, align 8
  %5 = alloca i32, align 4
  store ptr %0, ptr %3, align 8
  call void @llvm.lifetime.start.p0(i64 8, ptr %4) #10
  %6 = load ptr, ptr %3, align 8
  %7 = getelementptr inbounds nuw %struct.eio_obj, ptr %6, i32 0, i32 1
  %8 = load ptr, ptr %7, align 8
  store ptr %8, ptr %4, align 8
  br label %9

9:                                                ; preds = %1
  br label %10

10:                                               ; preds = %9
  %11 = call i32 @get_log_level()
  %12 = icmp sge i32 %11, 9
  br i1 %12, label %13, label %14

13:                                               ; preds = %10
  call void (i32, ptr, ...) @log_var(i32 noundef 9, ptr noundef @.str.67)
  br label %14

14:                                               ; preds = %13, %10
  br label %15

15:                                               ; preds = %14
  br label %16

16:                                               ; preds = %15
  br label %17

17:                                               ; preds = %16
  br label %18

18:                                               ; preds = %17
  %19 = load ptr, ptr %3, align 8
  %20 = getelementptr inbounds nuw %struct.eio_obj, ptr %19, i32 0, i32 0
  %21 = load i32, ptr %20, align 8
  %22 = icmp eq i32 %21, -1
  br i1 %22, label %23, label %34

23:                                               ; preds = %18
  br label %24

24:                                               ; preds = %23
  br label %25

25:                                               ; preds = %24
  %26 = call i32 @get_log_level()
  %27 = icmp sge i32 %26, 9
  br i1 %27, label %28, label %29

28:                                               ; preds = %25
  call void (i32, ptr, ...) @log_var(i32 noundef 9, ptr noundef @.str.68)
  br label %29

29:                                               ; preds = %28, %25
  br label %30

30:                                               ; preds = %29
  br label %31

31:                                               ; preds = %30
  br label %32

32:                                               ; preds = %31
  br label %33

33:                                               ; preds = %32
  store i1 false, ptr %2, align 1
  store i32 1, ptr %5, align 4
  br label %75

34:                                               ; preds = %18
  %35 = load ptr, ptr %4, align 8
  %36 = getelementptr inbounds nuw %struct.task_write_info, ptr %35, i32 0, i32 3
  %37 = load ptr, ptr %36, align 8
  %38 = icmp ne ptr %37, null
  br i1 %38, label %45, label %39

39:                                               ; preds = %34
  %40 = load ptr, ptr %4, align 8
  %41 = getelementptr inbounds nuw %struct.task_write_info, ptr %40, i32 0, i32 2
  %42 = load ptr, ptr %41, align 8
  %43 = call i32 @list_count(ptr noundef %42)
  %44 = icmp sgt i32 %43, 0
  br i1 %44, label %45, label %60

45:                                               ; preds = %39, %34
  br label %46

46:                                               ; preds = %45
  br label %47

47:                                               ; preds = %46
  %48 = call i32 @get_log_level()
  %49 = icmp sge i32 %48, 9
  br i1 %49, label %50, label %55

50:                                               ; preds = %47
  %51 = load ptr, ptr %4, align 8
  %52 = getelementptr inbounds nuw %struct.task_write_info, ptr %51, i32 0, i32 2
  %53 = load ptr, ptr %52, align 8
  %54 = call i32 @list_count(ptr noundef %53)
  call void (i32, ptr, ...) @log_var(i32 noundef 9, ptr noundef @.str.69, i32 noundef %54)
  br label %55

55:                                               ; preds = %50, %47
  br label %56

56:                                               ; preds = %55
  br label %57

57:                                               ; preds = %56
  br label %58

58:                                               ; preds = %57
  br label %59

59:                                               ; preds = %58
  store i1 true, ptr %2, align 1
  store i32 1, ptr %5, align 4
  br label %75

60:                                               ; preds = %39
  br label %61

61:                                               ; preds = %60
  br label %62

62:                                               ; preds = %61
  %63 = call i32 @get_log_level()
  %64 = icmp sge i32 %63, 9
  br i1 %64, label %65, label %70

65:                                               ; preds = %62
  %66 = load ptr, ptr %4, align 8
  %67 = getelementptr inbounds nuw %struct.task_write_info, ptr %66, i32 0, i32 2
  %68 = load ptr, ptr %67, align 8
  %69 = call i32 @list_count(ptr noundef %68)
  call void (i32, ptr, ...) @log_var(i32 noundef 9, ptr noundef @.str.70, i32 noundef %69)
  br label %70

70:                                               ; preds = %65, %62
  br label %71

71:                                               ; preds = %70
  br label %72

72:                                               ; preds = %71
  br label %73

73:                                               ; preds = %72
  br label %74

74:                                               ; preds = %73
  store i1 false, ptr %2, align 1
  store i32 1, ptr %5, align 4
  br label %75

75:                                               ; preds = %74, %59, %33
  call void @llvm.lifetime.end.p0(i64 8, ptr %4) #10
  %76 = load i1, ptr %2, align 1
  ret i1 %76
}