; Function Attrs: nounwind uwtable
define internal noundef zeroext i1 @_task_writable(ptr noundef readonly captures(none) %0) #0 {
  %2 = getelementptr inbounds nuw i8, ptr %0, i64 8
  %3 = load ptr, ptr %2, align 8
  %4 = tail call i32 @get_log_level() #11
  %5 = icmp sgt i32 %4, 8
  br i1 %5, label %6, label %7

6:                                                ; preds = %1
  tail call void (i32, ptr, ...) @log_var(i32 noundef 9, ptr noundef nonnull @.str.67) #11
  br label %7

7:                                                ; preds = %6, %1
  %8 = load i32, ptr %0, align 8
  %9 = icmp eq i32 %8, -1
  br i1 %9, label %10, label %14

10:                                               ; preds = %7
  %11 = tail call i32 @get_log_level() #11
  %12 = icmp sgt i32 %11, 8
  br i1 %12, label %13, label %35

13:                                               ; preds = %10
  tail call void (i32, ptr, ...) @log_var(i32 noundef 9, ptr noundef nonnull @.str.68) #11
  br label %35

14:                                               ; preds = %7
  %15 = getelementptr inbounds nuw i8, ptr %3, i64 24
  %16 = load ptr, ptr %15, align 8
  %.not = icmp eq ptr %16, null
  br i1 %.not, label %17, label %22

17:                                               ; preds = %14
  %18 = getelementptr inbounds nuw i8, ptr %3, i64 16
  %19 = load ptr, ptr %18, align 8
  %20 = tail call i32 @list_count(ptr noundef %19) #11
  %21 = icmp sgt i32 %20, 0
  br i1 %21, label %22, label %29

22:                                               ; preds = %17, %14
  %23 = tail call i32 @get_log_level() #11
  %24 = icmp sgt i32 %23, 8
  br i1 %24, label %25, label %35

25:                                               ; preds = %22
  %26 = getelementptr inbounds nuw i8, ptr %3, i64 16
  %27 = load ptr, ptr %26, align 8
  %28 = tail call i32 @list_count(ptr noundef %27) #11
  tail call void (i32, ptr, ...) @log_var(i32 noundef 9, ptr noundef nonnull @.str.69, i32 noundef %28) #11
  br label %35

29:                                               ; preds = %17
  %30 = tail call i32 @get_log_level() #11
  %31 = icmp sgt i32 %30, 8
  br i1 %31, label %32, label %35

32:                                               ; preds = %29
  %33 = load ptr, ptr %18, align 8
  %34 = tail call i32 @list_count(ptr noundef %33) #11
  tail call void (i32, ptr, ...) @log_var(i32 noundef 9, ptr noundef nonnull @.str.70, i32 noundef %34) #11
  br label %35

35:                                               ; preds = %29, %32, %22, %25, %10, %13
  %.0 = phi i1 [ false, %13 ], [ false, %10 ], [ true, %25 ], [ true, %22 ], [ false, %32 ], [ false, %29 ]
  ret i1 %.0
}